target datalayout = "e-m:e-p270:32:32-p271:32:32-p272:64:64-i64:64-i128:128-f80:128-n8:16:32:64-S128"
target triple = "x86_64-pc-linux-gnu"

@.str.12 = private unnamed_addr constant [2 x i8] c"w\00", align 1

; Function Attrs: nounwind uwtable
define dso_local ptr @fopen_for_writing(ptr noundef %0) #0 {
  %2 = alloca ptr, align 8
  %3 = alloca ptr, align 8
  store ptr %0, ptr %2, align 8, !tbaa !4
  call void @llvm.lifetime.start.p0(i64 8, ptr %3) #13
  %4 = load ptr, ptr %2, align 8, !tbaa !4
  %5 = call ptr @git_fopen(ptr noundef %4, ptr noundef @.str.12)
  store ptr %5, ptr %3, align 8, !tbaa !24
  %6 = load ptr, ptr %3, align 8, !tbaa !24
  %7 = icmp ne ptr %6, null
  br i1 %7, label %22, label %8

8:                                                ; preds = %1
  %9 = call ptr @__errno_location() #19
  %10 = load i32, ptr %9, align 4, !tbaa !11
  %11 = icmp eq i32 %10, 1
  br i1 %11, label %12, label %22

12:                                               ; preds = %8
  %13 = load ptr, ptr %2, align 8, !tbaa !4
  %14 = call i32 @unlink(ptr noundef %13) #13
  %15 = icmp ne i32 %14, 0
  br i1 %15, label %19, label %16

16:                                               ; preds = %12
  %17 = load ptr, ptr %2, align 8, !tbaa !4
  %18 = call ptr @git_fopen(ptr noundef %17, ptr noundef @.str.12)
  store ptr %18, ptr %3, align 8, !tbaa !24
  br label %21

19:                                               ; preds = %12
  %20 = call ptr @__errno_location() #19
  store i32 1, ptr %20, align 4, !tbaa !11
  br label %21

21:                                               ; preds = %19, %16
  br label %22

22:                                               ; preds = %21, %8, %1
  %23 = load ptr, ptr %3, align 8, !tbaa !24
  call void @llvm.lifetime.end.p0(i64 8, ptr %3) #13
  ret ptr %23
}