; Function Attrs: nounwind uwtable
define dso_local ptr @fopen_for_writing(ptr noundef %0) local_unnamed_addr #0 {
  %2 = tail call ptr @git_fopen(ptr noundef %0, ptr noundef nonnull @.str.12) #20
  %.not = icmp eq ptr %2, null
  br i1 %.not, label %3, label %12

3:                                                ; preds = %1
  %4 = tail call ptr @__errno_location() #26
  %5 = load i32, ptr %4, align 4, !tbaa !9
  %6 = icmp eq i32 %5, 1
  br i1 %6, label %7, label %12

7:                                                ; preds = %3
  %8 = tail call i32 @unlink(ptr noundef %0) #20
  %.not6 = icmp eq i32 %8, 0
  br i1 %.not6, label %9, label %11

9:                                                ; preds = %7
  %10 = tail call ptr @git_fopen(ptr noundef %0, ptr noundef nonnull @.str.12) #20
  br label %12

11:                                               ; preds = %7
  store i32 1, ptr %4, align 4, !tbaa !9
  br label %12

12:                                               ; preds = %9, %11, %3, %1
  %.0 = phi ptr [ %2, %1 ], [ null, %11 ], [ %10, %9 ], [ null, %3 ]
  ret ptr %.0
}